; Function Attrs: mustprogress nounwind uwtable
define hidden void @_ZN21ZNMethodsIteratorImpl5applyEP14NMethodClosure(ptr nocapture noundef nonnull readonly align 1 dereferenceable(3) %0, ptr noundef %1) local_unnamed_addr #0 align 2 {
_ZN14ZRootStatTimer18calculate_subphaseE21ZGenerationIdOptionalRK17ZRootStatSubPhase.exit.i:
  %2 = alloca %class.TimeInstant, align 8
  %3 = alloca %class.ZRootStatTimer, align 8
  %4 = getelementptr inbounds i8, ptr %0, i64 2
  %5 = load i8, ptr %4, align 1
  %switch.selectcmp = icmp eq i8 %5, 1
  %switch.select = select i1 %switch.selectcmp, ptr getelementptr inbounds (i8, ptr @_ZL33ZSubPhaseConcurrentRootsCodeCache, i64 48), ptr null
  %switch.selectcmp2 = icmp eq i8 %5, 0
  %switch.select3 = select i1 %switch.selectcmp2, ptr @_ZL33ZSubPhaseConcurrentRootsCodeCache, ptr %switch.select
  store ptr %switch.select3, ptr %3, align 8
  %6 = getelementptr inbounds i8, ptr %3, i64 8
  %7 = tail call { i64, i64 } @_ZN29CompositeElapsedCounterSource3nowEv() #7
  %8 = extractvalue { i64, i64 } %7, 0
  store i64 %8, ptr %6, align 8
  %9 = getelementptr inbounds i8, ptr %3, i64 16
  %10 = extractvalue { i64, i64 } %7, 1
  store i64 %10, ptr %9, align 8
  %.not.i.i = icmp eq ptr %switch.select3, null
  br i1 %.not.i.i, label %_ZN14ZRootStatTimerC2ERK17ZRootStatSubPhase21ZGenerationIdOptional.exit, label %11

11:                                               ; preds = %_ZN14ZRootStatTimer18calculate_subphaseE21ZGenerationIdOptionalRK17ZRootStatSubPhase.exit.i
  %12 = load ptr, ptr %switch.select3, align 8
  %13 = load ptr, ptr %12, align 8
  call void %13(ptr noundef nonnull align 8 dereferenceable(48) %switch.select3, ptr noundef null, ptr noundef nonnull align 8 dereferenceable(16) %6) #7
  br label %_ZN14ZRootStatTimerC2ERK17ZRootStatSubPhase21ZGenerationIdOptional.exit

_ZN14ZRootStatTimerC2ERK17ZRootStatSubPhase21ZGenerationIdOptional.exit: ; preds = %_ZN14ZRootStatTimer18calculate_subphaseE21ZGenerationIdOptionalRK17ZRootStatSubPhase.exit.i, %11
  %14 = getelementptr inbounds i8, ptr %0, i64 1
  %15 = load i8, ptr %14, align 1
  %16 = trunc i8 %15 to i1
  call void @_ZN8ZNMethod11nmethods_doEbP14NMethodClosure(i1 noundef zeroext %16, ptr noundef %1) #7
  call void @llvm.lifetime.start.p0(i64 16, ptr nonnull %2)
  %17 = load ptr, ptr %3, align 8
  %.not.i = icmp eq ptr %17, null
  br i1 %.not.i, label %_ZN14ZRootStatTimerD2Ev.exit, label %18

18:                                               ; preds = %_ZN14ZRootStatTimerC2ERK17ZRootStatSubPhase21ZGenerationIdOptional.exit
  %19 = call { i64, i64 } @_ZN29CompositeElapsedCounterSource3nowEv() #7
  %20 = extractvalue { i64, i64 } %19, 0
  store i64 %20, ptr %2, align 8
  %21 = getelementptr inbounds i8, ptr %2, i64 8
  %22 = extractvalue { i64, i64 } %19, 1
  store i64 %22, ptr %21, align 8
  %23 = load ptr, ptr %3, align 8
  %24 = load ptr, ptr %23, align 8
  %25 = getelementptr inbounds i8, ptr %24, i64 8
  %26 = load ptr, ptr %25, align 8
  call void %26(ptr noundef nonnull align 8 dereferenceable(48) %23, ptr noundef null, ptr noundef nonnull align 8 dereferenceable(16) %6, ptr noundef nonnull align 8 dereferenceable(16) %2) #7
  br label %_ZN14ZRootStatTimerD2Ev.exit

_ZN14ZRootStatTimerD2Ev.exit:                     ; preds = %_ZN14ZRootStatTimerC2ERK17ZRootStatSubPhase21ZGenerationIdOptional.exit, %18
  call void @llvm.lifetime.end.p0(i64 16, ptr nonnull %2)
  ret void
}